target datalayout = "e-m:e-p270:32:32-p271:32:32-p272:64:64-i64:64-i128:128-f80:128-n8:16:32:64-S128"
target triple = "x86_64-pc-linux-gnu"

%struct.archive_string = type { ptr, i64, i64 }
%struct.pax = type { i64, i64, %struct.archive_string, %struct.archive_string, %struct.archive_string, i64, ptr, ptr, ptr, i32, i32 }
%struct.sparse_block = type { ptr, i32, i64, i64 }

; Function Attrs: nounwind uwtable
define internal i32 @_sparse_list_add_block(ptr noundef %0, i64 noundef %1, i64 noundef %2, i32 noundef %3) #0 {
  %5 = alloca i32, align 4
  %6 = alloca ptr, align 8
  %7 = alloca i64, align 8
  %8 = alloca i64, align 8
  %9 = alloca i32, align 4
  %10 = alloca ptr, align 8
  store ptr %0, ptr %6, align 8
  store i64 %1, ptr %7, align 8
  store i64 %2, ptr %8, align 8
  store i32 %3, ptr %9, align 4
  %11 = call noalias ptr @malloc(i64 noundef 32) #10
  store ptr %11, ptr %10, align 8
  %12 = load ptr, ptr %10, align 8
  %13 = icmp eq ptr %12, null
  br i1 %13, label %14, label %15

14:                                               ; preds = %4
  store i32 -30, ptr %5, align 4
  br label %52

15:                                               ; preds = %4
  %16 = load ptr, ptr %10, align 8
  %17 = getelementptr inbounds %struct.sparse_block, ptr %16, i32 0, i32 0
  store ptr null, ptr %17, align 8
  %18 = load i32, ptr %9, align 4
  %19 = load ptr, ptr %10, align 8
  %20 = getelementptr inbounds %struct.sparse_block, ptr %19, i32 0, i32 1
  store i32 %18, ptr %20, align 8
  %21 = load i64, ptr %7, align 8
  %22 = load ptr, ptr %10, align 8
  %23 = getelementptr inbounds %struct.sparse_block, ptr %22, i32 0, i32 2
  store i64 %21, ptr %23, align 8
  %24 = load i64, ptr %8, align 8
  %25 = load ptr, ptr %10, align 8
  %26 = getelementptr inbounds %struct.sparse_block, ptr %25, i32 0, i32 3
  store i64 %24, ptr %26, align 8
  %27 = load ptr, ptr %6, align 8
  %28 = getelementptr inbounds %struct.pax, ptr %27, i32 0, i32 6
  %29 = load ptr, ptr %28, align 8
  %30 = icmp eq ptr %29, null
  br i1 %30, label %36, label %31

31:                                               ; preds = %15
  %32 = load ptr, ptr %6, align 8
  %33 = getelementptr inbounds %struct.pax, ptr %32, i32 0, i32 7
  %34 = load ptr, ptr %33, align 8
  %35 = icmp eq ptr %34, null
  br i1 %35, label %36, label %42

36:                                               ; preds = %31, %15
  %37 = load ptr, ptr %10, align 8
  %38 = load ptr, ptr %6, align 8
  %39 = getelementptr inbounds %struct.pax, ptr %38, i32 0, i32 7
  store ptr %37, ptr %39, align 8
  %40 = load ptr, ptr %6, align 8
  %41 = getelementptr inbounds %struct.pax, ptr %40, i32 0, i32 6
  store ptr %37, ptr %41, align 8
  br label %51

42:                                               ; preds = %31
  %43 = load ptr, ptr %10, align 8
  %44 = load ptr, ptr %6, align 8
  %45 = getelementptr inbounds %struct.pax, ptr %44, i32 0, i32 7
  %46 = load ptr, ptr %45, align 8
  %47 = getelementptr inbounds %struct.sparse_block, ptr %46, i32 0, i32 0
  store ptr %43, ptr %47, align 8
  %48 = load ptr, ptr %10, align 8
  %49 = load ptr, ptr %6, align 8
  %50 = getelementptr inbounds %struct.pax, ptr %49, i32 0, i32 7
  store ptr %48, ptr %50, align 8
  br label %51

51:                                               ; preds = %42, %36
  store i32 0, ptr %5, align 4
  br label %52

52:                                               ; preds = %51, %14
  %53 = load i32, ptr %5, align 4
  ret i32 %53
}

; Function Attrs: nounwind uwtable
define internal i32 @sparse_list_add(ptr noundef %0, i64 noundef %1, i64 noundef %2) #0 {
  %4 = alloca i32, align 4
  %5 = alloca ptr, align 8
  %6 = alloca i64, align 8
  %7 = alloca i64, align 8
  %8 = alloca i64, align 8
  %9 = alloca i32, align 4
  store ptr %0, ptr %5, align 8
  store i64 %1, ptr %6, align 8
  store i64 %2, ptr %7, align 8
  %10 = load ptr, ptr %5, align 8
  %11 = getelementptr inbounds %struct.pax, ptr %10, i32 0, i32 7
  %12 = load ptr, ptr %11, align 8
  %13 = icmp eq ptr %12, null
  br i1 %13, label %14, label %15

14:                                               ; preds = %3
  store i64 0, ptr %8, align 8
  br label %27

15:                                               ; preds = %3
  %16 = load ptr, ptr %5, align 8
  %17 = getelementptr inbounds %struct.pax, ptr %16, i32 0, i32 7
  %18 = load ptr, ptr %17, align 8
  %19 = getelementptr inbounds %struct.sparse_block, ptr %18, i32 0, i32 2
  %20 = load i64, ptr %19, align 8
  %21 = load ptr, ptr %5, align 8
  %22 = getelementptr inbounds %struct.pax, ptr %21, i32 0, i32 7
  %23 = load ptr, ptr %22, align 8
  %24 = getelementptr inbounds %struct.sparse_block, ptr %23, i32 0, i32 3
  %25 = load i64, ptr %24, align 8
  %26 = add i64 %20, %25
  store i64 %26, ptr %8, align 8
  br label %27

27:                                               ; preds = %15, %14
  %28 = load i64, ptr %8, align 8
  %29 = load i64, ptr %6, align 8
  %30 = icmp slt i64 %28, %29
  br i1 %30, label %31, label %43

31:                                               ; preds = %27
  %32 = load ptr, ptr %5, align 8
  %33 = load i64, ptr %8, align 8
  %34 = load i64, ptr %6, align 8
  %35 = load i64, ptr %8, align 8
  %36 = sub nsw i64 %34, %35
  %37 = call i32 @_sparse_list_add_block(ptr noundef %32, i64 noundef %33, i64 noundef %36, i32 noundef 1)
  store i32 %37, ptr %9, align 4
  %38 = load i32, ptr %9, align 4
  %39 = icmp ne i32 %38, 0
  br i1 %39, label %40, label %42

40:                                               ; preds = %31
  %41 = load i32, ptr %9, align 4
  store i32 %41, ptr %4, align 4
  br label %48

42:                                               ; preds = %31
  br label %43

43:                                               ; preds = %42, %27
  %44 = load ptr, ptr %5, align 8
  %45 = load i64, ptr %6, align 8
  %46 = load i64, ptr %7, align 8
  %47 = call i32 @_sparse_list_add_block(ptr noundef %44, i64 noundef %45, i64 noundef %46, i32 noundef 0)
  store i32 %47, ptr %4, align 4
  br label %48

48:                                               ; preds = %43, %40
  %49 = load i32, ptr %4, align 4
  ret i32 %49
}