; Function Attrs: mustprogress nofree nounwind willreturn uwtable
define internal fastcc range(i32 -30, 1) i32 @sparse_list_add(ptr noundef captures(none) %0, i64 noundef %1, i64 noundef %2) unnamed_addr #9 {
  %4 = getelementptr inbounds nuw i8, ptr %0, i64 104
  %5 = load ptr, ptr %4, align 8
  %6 = icmp eq ptr %5, null
  br i1 %6, label %13, label %7

7:                                                ; preds = %3
  %8 = getelementptr inbounds nuw i8, ptr %5, i64 16
  %9 = load i64, ptr %8, align 8
  %10 = getelementptr inbounds nuw i8, ptr %5, i64 24
  %11 = load i64, ptr %10, align 8
  %12 = add i64 %11, %9
  br label %13

13:                                               ; preds = %3, %7
  %.014 = phi i64 [ %12, %7 ], [ 0, %3 ]
  %14 = icmp slt i64 %.014, %1
  br i1 %14, label %15, label %_sparse_list_add_block.exit.thread

15:                                               ; preds = %13
  %16 = tail call noalias dereferenceable_or_null(32) ptr @malloc(i64 noundef 32) #19
  %17 = icmp eq ptr %16, null
  br i1 %17, label %_sparse_list_add_block.exit, label %18

18:                                               ; preds = %15
  %19 = sub nsw i64 %1, %.014
  store ptr null, ptr %16, align 8
  %20 = getelementptr inbounds nuw i8, ptr %16, i64 8
  store i32 1, ptr %20, align 8
  %21 = getelementptr inbounds nuw i8, ptr %16, i64 16
  store i64 %.014, ptr %21, align 8
  %22 = getelementptr inbounds nuw i8, ptr %16, i64 24
  store i64 %19, ptr %22, align 8
  %23 = getelementptr inbounds nuw i8, ptr %0, i64 96
  %24 = load ptr, ptr %23, align 8
  %25 = icmp eq ptr %24, null
  %brmerge = or i1 %6, %25
  br i1 %brmerge, label %26, label %27

26:                                               ; preds = %18
  store ptr %16, ptr %4, align 8
  store ptr %16, ptr %23, align 8
  br label %_sparse_list_add_block.exit.thread

27:                                               ; preds = %18
  store ptr %16, ptr %5, align 8
  store ptr %16, ptr %4, align 8
  br label %_sparse_list_add_block.exit.thread

_sparse_list_add_block.exit.thread:               ; preds = %26, %27, %13
  %28 = phi ptr [ %16, %26 ], [ %16, %27 ], [ %5, %13 ]
  %29 = tail call noalias dereferenceable_or_null(32) ptr @malloc(i64 noundef 32) #19
  %30 = icmp eq ptr %29, null
  br i1 %30, label %_sparse_list_add_block.exit, label %31

31:                                               ; preds = %_sparse_list_add_block.exit.thread
  store ptr null, ptr %29, align 8
  %32 = getelementptr inbounds nuw i8, ptr %29, i64 8
  store i32 0, ptr %32, align 8
  %33 = getelementptr inbounds nuw i8, ptr %29, i64 16
  store i64 %1, ptr %33, align 8
  %34 = getelementptr inbounds nuw i8, ptr %29, i64 24
  store i64 %2, ptr %34, align 8
  %35 = getelementptr inbounds nuw i8, ptr %0, i64 96
  %36 = load ptr, ptr %35, align 8
  %37 = icmp eq ptr %36, null
  %38 = icmp eq ptr %28, null
  %or.cond = or i1 %37, %38
  br i1 %or.cond, label %39, label %40

39:                                               ; preds = %31
  store ptr %29, ptr %4, align 8
  store ptr %29, ptr %35, align 8
  br label %_sparse_list_add_block.exit

40:                                               ; preds = %31
  store ptr %29, ptr %28, align 8
  store ptr %29, ptr %4, align 8
  br label %_sparse_list_add_block.exit

_sparse_list_add_block.exit:                      ; preds = %40, %39, %_sparse_list_add_block.exit.thread, %15
  %.0 = phi i32 [ -30, %15 ], [ -30, %_sparse_list_add_block.exit.thread ], [ 0, %40 ], [ 0, %39 ]
  ret i32 %.0
}